target datalayout = "e-m:e-p270:32:32-p271:32:32-p272:64:64-i64:64-i128:128-f80:128-n8:16:32:64-S128"
target triple = "x86_64-unknown-linux-gnu"

%"class.sat::literal" = type { i32 }
%"class.sat::lookahead" = type { ptr, i32, %class.reslimit, %"struct.sat::lookahead::config", double, double, double, %class.svector.1, %class.svector.1, %class.svector.3, %class.vector.5, %class.svector.3, %class.svector.3, %class.vector.6, %class.svector.3, %class.small_object_allocator, %class.vector.7, %class.ptr_vector.8, %class.svector.3, i32, %class.svector.3, i32, %class.svector.3, i8, %class.svector.3, %class.vector.10, ptr, %class.svector.11, i32, i32, %class.svector.3, i32, i32, %class.vector.13, %class.svector.14, double, %class.svector.1, i32, i64, %class.svector.16, i32, %class.indexed_uint_set, i32, i32, %"struct.sat::lookahead::stats", %class.svector.18, %"struct.sat::lookahead::cube_state", i32, %class.svector.22, %class.tracked_uint_set, %"class.sat::literal", i32, i32, %"class.sat::literal", %class.vector.26, %"class.sat::literal", %class.svector.27 }
%class.reslimit = type { %"struct.std::atomic", i8, i64, i64, %class.svector, %class.ptr_vector }
%"struct.std::atomic" = type { %"struct.std::__atomic_base" }
%"struct.std::__atomic_base" = type { i32 }
%class.svector = type { %class.vector }
%class.vector = type { ptr }
%class.ptr_vector = type { %class.vector.0 }
%class.vector.0 = type { ptr }
%"struct.sat::lookahead::config" = type { double, double, double, i32, i32, i8, i32, double, i32, i32, i32, i32, i32, double, double, double, double, double }
%class.vector.5 = type { ptr }
%class.vector.6 = type { ptr }
%class.small_object_allocator = type { [32 x ptr], [32 x ptr], i64 }
%class.vector.7 = type { ptr }
%class.ptr_vector.8 = type { %class.vector.9 }
%class.vector.9 = type { ptr }
%class.vector.10 = type { ptr }
%class.svector.11 = type { %class.vector.12 }
%class.vector.12 = type { ptr }
%class.svector.3 = type { %class.vector.4 }
%class.vector.4 = type { ptr }
%class.vector.13 = type { ptr }
%class.svector.14 = type { %class.vector.15 }
%class.vector.15 = type { ptr }
%class.svector.1 = type { %class.vector.2 }
%class.vector.2 = type { ptr }
%class.svector.16 = type { %class.vector.17 }
%class.vector.17 = type { ptr }
%class.indexed_uint_set = type { i32, %class.svector.3, %class.svector.3 }
%"struct.sat::lookahead::stats" = type { i32, i32, i32, i32, i32, i32, i32, i32 }
%class.svector.18 = type { %class.vector.19 }
%class.vector.19 = type { ptr }
%"struct.sat::lookahead::cube_state" = type <{ i8, [7 x i8], %class.svector.20, %class.svector.1, double, double, i32, i32, i32, [4 x i8] }>
%class.svector.20 = type { %class.vector.21 }
%class.vector.21 = type { ptr }
%class.svector.22 = type { %class.vector.23 }
%class.vector.23 = type { ptr }
%class.tracked_uint_set = type { %class.svector.24, %class.svector.3 }
%class.svector.24 = type { %class.vector.25 }
%class.vector.25 = type { ptr }
%class.vector.26 = type { ptr }
%class.svector.27 = type { %class.vector.28 }
%class.vector.28 = type { ptr }
%"struct.sat::lookahead::lit_info" = type <{ double, i32, [4 x i8] }>

; Function Attrs: mustprogress nounwind uwtable
define linkonce_odr hidden noundef nonnull align 8 dereferenceable(12) ptr @_ZN6vectorIN3sat9lookahead8lit_infoELb0EjEixEj(ptr noundef nonnull align 8 dereferenceable(8) %this, i32 noundef %idx) #4 comdat align 2 {
entry:
  %this.addr = alloca ptr, align 8
  %idx.addr = alloca i32, align 4
  store ptr %this, ptr %this.addr, align 8
  store i32 %idx, ptr %idx.addr, align 4
  %this1 = load ptr, ptr %this.addr, align 8
  %m_data = getelementptr inbounds %class.vector.15, ptr %this1, i32 0, i32 0
  %0 = load ptr, ptr %m_data, align 8
  %1 = load i32, ptr %idx.addr, align 4
  %idxprom = zext i32 %1 to i64
  %arrayidx = getelementptr inbounds %"struct.sat::lookahead::lit_info", ptr %0, i64 %idxprom
  ret ptr %arrayidx
}

; Function Attrs: mustprogress nounwind uwtable
define linkonce_odr hidden noundef i32 @_ZNK3sat7literal5indexEv(ptr noundef nonnull align 4 dereferenceable(4) %this) #4 comdat align 2 {
entry:
  %this.addr = alloca ptr, align 8
  store ptr %this, ptr %this.addr, align 8
  %this1 = load ptr, ptr %this.addr, align 8
  %m_val = getelementptr inbounds %"class.sat::literal", ptr %this1, i32 0, i32 0
  %0 = load i32, ptr %m_val, align 4
  ret i32 %0
}

; Function Attrs: mustprogress uwtable
define linkonce_odr hidden void @_ZN3sat9lookahead20inc_lookahead_rewardENS_7literalEd(ptr noundef nonnull align 8 dereferenceable(1160) %this, i32 %l.coerce, double noundef %f) #5 comdat align 2 {
entry:
  %l = alloca %"class.sat::literal", align 4
  %this.addr = alloca ptr, align 8
  %f.addr = alloca double, align 8
  %coerce.dive = getelementptr inbounds %"class.sat::literal", ptr %l, i32 0, i32 0
  store i32 %l.coerce, ptr %coerce.dive, align 4
  store ptr %this, ptr %this.addr, align 8
  store double %f, ptr %f.addr, align 8
  %this1 = load ptr, ptr %this.addr, align 8
  %0 = load double, ptr %f.addr, align 8
  %m_lits = getelementptr inbounds %"class.sat::lookahead", ptr %this1, i32 0, i32 34
  %call = call noundef i32 @_ZNK3sat7literal5indexEv(ptr noundef nonnull align 4 dereferenceable(4) %l)
  %call2 = call noundef nonnull align 8 dereferenceable(12) ptr @_ZN6vectorIN3sat9lookahead8lit_infoELb0EjEixEj(ptr noundef nonnull align 8 dereferenceable(8) %m_lits, i32 noundef %call)
  %m_lookahead_reward = getelementptr inbounds %"struct.sat::lookahead::lit_info", ptr %call2, i32 0, i32 0
  %1 = load double, ptr %m_lookahead_reward, align 8
  %add = fadd double %1, %0
  store double %add, ptr %m_lookahead_reward, align 8
  ret void
}

; Function Attrs: mustprogress uwtable
define hidden void @_ZN3sat9lookahead23update_lookahead_rewardENS_7literalEj(ptr noundef nonnull align 8 dereferenceable(1160) %this, i32 %l.coerce, i32 noundef %level) #5 align 2 {
entry:
  %l = alloca %"class.sat::literal", align 4
  %this.addr = alloca ptr, align 8
  %level.addr = alloca i32, align 4
  %agg.tmp = alloca %"class.sat::literal", align 4
  %coerce.dive = getelementptr inbounds %"class.sat::literal", ptr %l, i32 0, i32 0
  store i32 %l.coerce, ptr %coerce.dive, align 4
  store ptr %this, ptr %this.addr, align 8
  store i32 %level, ptr %level.addr, align 4
  %this1 = load ptr, ptr %this.addr, align 8
  %m_lookahead_reward = getelementptr inbounds %"class.sat::lookahead", ptr %this1, i32 0, i32 35
  %0 = load double, ptr %m_lookahead_reward, align 8
  %cmp = fcmp une double %0, 0.000000e+00
  br i1 %cmp, label %if.then, label %if.end

if.then:                                          ; preds = %entry
  call void @llvm.memcpy.p0.p0.i64(ptr align 4 %agg.tmp, ptr align 4 %l, i64 4, i1 false)
  %m_lookahead_reward2 = getelementptr inbounds %"class.sat::lookahead", ptr %this1, i32 0, i32 35
  %1 = load double, ptr %m_lookahead_reward2, align 8
  %coerce.dive3 = getelementptr inbounds %"class.sat::literal", ptr %agg.tmp, i32 0, i32 0
  %2 = load i32, ptr %coerce.dive3, align 4
  call void @_ZN3sat9lookahead20inc_lookahead_rewardENS_7literalEd(ptr noundef nonnull align 8 dereferenceable(1160) %this1, i32 %2, double noundef %1)
  br label %if.end

if.end:                                           ; preds = %if.then, %entry
  ret void
}