; Function Attrs: mustprogress nofree norecurse nosync nounwind willreturn memory(readwrite, inaccessiblemem: none) uwtable
define hidden void @_ZN3sat9lookahead23update_lookahead_rewardENS_7literalEj(ptr nocapture noundef nonnull readonly align 8 dereferenceable(1160) %this, i32 %l.coerce, i32 noundef %level) local_unnamed_addr #8 align 2 {
entry:
  %m_lookahead_reward = getelementptr inbounds i8, ptr %this, i64 912
  %0 = load double, ptr %m_lookahead_reward, align 8
  %cmp = fcmp une double %0, 0.000000e+00
  br i1 %cmp, label %if.then, label %if.end

if.then:                                          ; preds = %entry
  %m_lits.i = getelementptr inbounds i8, ptr %this, i64 904
  %1 = load ptr, ptr %m_lits.i, align 8
  %idxprom.i.i = zext i32 %l.coerce to i64
  %arrayidx.i.i = getelementptr inbounds %"struct.sat::lookahead::lit_info", ptr %1, i64 %idxprom.i.i
  %2 = load double, ptr %arrayidx.i.i, align 8
  %add.i = fadd double %0, %2
  store double %add.i, ptr %arrayidx.i.i, align 8
  br label %if.end

if.end:                                           ; preds = %if.then, %entry
  ret void
}